target datalayout = "e-m:e-p270:32:32-p271:32:32-p272:64:64-i64:64-i128:128-f80:128-n8:16:32:64-S128"
target triple = "x86_64-pc-linux-gnu"

@__itt_sync_create_ptr__3_0 = external global ptr, align 8

; Function Attrs: mustprogress sspstrong uwtable
define void @_ZN3tbb6detail2r115create_itt_syncEPvPKcS4_(ptr noundef %0, ptr noundef %1, ptr noundef %2) #0 {
  %4 = alloca ptr, align 8
  %5 = alloca ptr, align 8
  %6 = alloca ptr, align 8
  store ptr %0, ptr %4, align 8, !tbaa !14
  store ptr %1, ptr %5, align 8, !tbaa !15
  store ptr %2, ptr %6, align 8, !tbaa !15
  %7 = load ptr, ptr @__itt_sync_create_ptr__3_0, align 8, !tbaa !14
  %8 = icmp ne ptr %7, null
  br i1 %8, label %10, label %9

9:                                                ; preds = %3
  br label %15

10:                                               ; preds = %3
  %11 = load ptr, ptr @__itt_sync_create_ptr__3_0, align 8, !tbaa !14
  %12 = load ptr, ptr %4, align 8, !tbaa !14
  %13 = load ptr, ptr %5, align 8, !tbaa !15
  %14 = load ptr, ptr %6, align 8, !tbaa !15
  call void %11(ptr noundef %12, ptr noundef %13, ptr noundef %14, i32 noundef 2)
  br label %15

15:                                               ; preds = %10, %9
  ret void
}