; Function Attrs: mustprogress sspstrong uwtable
define void @_ZN3tbb6detail2r115create_itt_syncEPvPKcS4_(ptr noundef %0, ptr noundef %1, ptr noundef %2) local_unnamed_addr #0 {
  %4 = load ptr, ptr @__itt_sync_create_ptr__3_0, align 8, !tbaa !7
  %.not = icmp eq ptr %4, null
  br i1 %.not, label %6, label %5

5:                                                ; preds = %3
  tail call void %4(ptr noundef %0, ptr noundef %1, ptr noundef %2, i32 noundef 2)
  br label %6

6:                                                ; preds = %3, %5
  ret void
}